; Function Attrs: nofree norecurse nosync nounwind memory(read, inaccessiblemem: none) uwtable
define dso_local noundef zeroext i1 @has_stats_of_kind(ptr noundef readonly captures(address_is_null) %0, i8 noundef signext %1) local_unnamed_addr #5 {
  %3 = getelementptr inbounds nuw i8, ptr %0, i64 16
  %.not = icmp eq ptr %0, null
  br i1 %.not, label %.critedge, label %.lr.ph

.lr.ph:                                           ; preds = %2
  %4 = getelementptr inbounds nuw i8, ptr %0, i64 4
  %5 = load i32, ptr %4, align 4
  %6 = icmp sgt i32 %5, 0
  br i1 %6, label %.lr.ph28, label %.critedge

.lr.ph28:                                         ; preds = %.lr.ph
  %7 = load ptr, ptr %3, align 8
  %wide.trip.count = zext nneg i32 %5 to i64
  br label %8

8:                                                ; preds = %8, %.lr.ph28
  %indvars.iv = phi i64 [ 0, %.lr.ph28 ], [ %indvars.iv.next, %8 ]
  %9 = getelementptr inbounds nuw %union.ListCell, ptr %7, i64 %indvars.iv
  %10 = load ptr, ptr %9, align 8
  %11 = getelementptr inbounds nuw i8, ptr %10, i64 24
  %12 = load i8, ptr %11, align 8
  %.not16 = icmp eq i8 %12, %1
  %indvars.iv.next = add nuw nsw i64 %indvars.iv, 1
  %exitcond.not = icmp eq i64 %indvars.iv.next, %wide.trip.count
  %or.cond = select i1 %.not16, i1 true, i1 %exitcond.not
  br i1 %or.cond, label %.critedge, label %8

.critedge:                                        ; preds = %8, %.lr.ph, %2
  %.3 = phi i1 [ false, %2 ], [ false, %.lr.ph ], [ %.not16, %8 ]
  ret i1 %.3
}